; Function Attrs: mustprogress nounwind uwtable
define dso_local void @_ZN4llvm4yaml12ScalarTraitsINS_9StringRefEvE6outputERKS2_PvRNS_11raw_ostreamE(ptr noundef nonnull readonly align 8 captures(none) dereferenceable(16) %0, ptr noundef readnone captures(none) %1, ptr noundef nonnull align 8 dereferenceable(48) %2) local_unnamed_addr #6 align 2 {
  %.sroa.0.0.copyload = load ptr, ptr %0, align 8
  %.sroa.2.0..sroa_idx = getelementptr inbounds nuw i8, ptr %0, i64 8
  %.sroa.2.0.copyload = load i64, ptr %.sroa.2.0..sroa_idx, align 8
  %4 = getelementptr inbounds nuw i8, ptr %2, i64 24
  %5 = load ptr, ptr %4, align 8
  %6 = getelementptr inbounds nuw i8, ptr %2, i64 32
  %7 = load ptr, ptr %6, align 8
  %8 = ptrtoint ptr %5 to i64
  %9 = ptrtoint ptr %7 to i64
  %10 = sub i64 %8, %9
  %11 = icmp ugt i64 %.sroa.2.0.copyload, %10
  br i1 %11, label %12, label %14

12:                                               ; preds = %3
  %13 = tail call noundef nonnull align 8 dereferenceable(48) ptr @_ZN4llvm11raw_ostream5writeEPKcm(ptr noundef nonnull align 8 dereferenceable(48) %2, ptr noundef %.sroa.0.0.copyload, i64 noundef %.sroa.2.0.copyload) #32
  br label %_ZN4llvm11raw_ostreamlsENS_9StringRefE.exit

14:                                               ; preds = %3
  %.not.i = icmp eq i64 %.sroa.2.0.copyload, 0
  br i1 %.not.i, label %_ZN4llvm11raw_ostreamlsENS_9StringRefE.exit, label %15

15:                                               ; preds = %14
  tail call void @llvm.memcpy.p0.p0.i64(ptr align 1 %7, ptr align 1 %.sroa.0.0.copyload, i64 %.sroa.2.0.copyload, i1 false)
  %16 = load ptr, ptr %6, align 8
  %17 = getelementptr inbounds i8, ptr %16, i64 %.sroa.2.0.copyload
  store ptr %17, ptr %6, align 8
  br label %_ZN4llvm11raw_ostreamlsENS_9StringRefE.exit

_ZN4llvm11raw_ostreamlsENS_9StringRefE.exit:      ; preds = %12, %14, %15
  ret void
}